Certificate:
    Data:
        Version: 3 (0x2)
        Serial Number: 1 (0x1)
        Signature Algorithm: sha256WithRSAEncryption
        Issuer: O=Test Org, CN=Test Org rauc CA Development
        Validity
            Not Before: Jan  1 00:00:00 1970 GMT
            Not After : Dec 31 23:59:59 9999 GMT
        Subject: O=Test Org, CN=Test Org rauc CA Development
        Subject Public Key Info:
            Public Key Algorithm: rsaEncryption
                RSA Public-Key: (2048 bit)
                Modulus:
                    00:ce:18:c0:87:56:53:69:90:83:9c:87:85:7a:26:
                    46:42:4c:ef:ec:23:e4:f5:b5:29:42:74:e9:f0:32:
                    51:8c:f3:68:d6:5e:52:fb:b7:48:7d:4d:b1:bb:a1:
                    66:ab:2e:c5:de:f9:3b:48:15:88:a9:ae:3a:de:59:
                    93:67:be:e6:d9:bd:cb:dd:6b:36:6f:cf:03:da:d7:
                    4f:89:3b:ff:c0:54:57:c4:6c:9a:f1:75:f5:a6:18:
                    91:dd:48:8f:c2:45:93:a9:b6:ed:5d:da:7e:94:70:
                    c5:5b:65:c1:60:a5:e7:b5:59:e0:ed:7f:b9:da:a2:
                    46:95:fd:78:0b:42:4e:99:cd:a4:24:eb:b4:5e:20:
                    28:a6:29:9d:bb:49:86:f7:7d:77:5a:5c:07:10:45:
                    26:d9:53:6d:88:c0:76:73:a9:52:07:17:a4:de:d6:
                    a6:8a:34:23:52:ec:c3:86:25:a3:1e:00:ee:a6:24:
                    e2:07:d5:e5:58:2f:69:15:55:24:61:88:8a:49:2a:
                    c1:e5:89:05:7c:4c:fe:f5:64:04:de:de:e6:18:73:
                    71:cd:ef:cb:d0:ca:a3:9c:ab:95:c8:b1:ba:af:c4:
                    71:c7:61:1d:93:47:b7:63:74:76:e2:bb:81:1b:eb:
                    9f:2a:d9:e3:ef:33:76:2a:f2:b5:7c:ac:cb:e8:5a:
                    9d:03
                Exponent: 65537 (0x10001)
        X509v3 extensions:
            X509v3 Subject Key Identifier: 
                A4:D5:41:3E:E7:E9:76:3E:55:AD:A3:3F:6E:06:1B:05:2C:D5:55:20
            X509v3 Authority Key Identifier: 
                keyid:A4:D5:41:3E:E7:E9:76:3E:55:AD:A3:3F:6E:06:1B:05:2C:D5:55:20
                DirName:/O=Test Org/CN=Test Org rauc CA Development
                serial:01

            X509v3 Basic Constraints: 
                CA:TRUE
    Signature Algorithm: sha256WithRSAEncryption
         4b:ff:42:98:3f:32:a6:ba:f5:df:73:f0:1d:01:d5:1a:c5:fc:
         2f:4c:71:97:79:0f:49:68:13:67:a1:ea:ac:e1:74:f3:9c:91:
         04:0c:0c:77:07:c0:e1:8b:96:83:f5:3b:ac:08:b7:66:c5:91:
         6e:ea:87:4f:03:c2:c6:b7:a9:3b:9a:1d:30:e5:e8:a9:51:7b:
         b3:fa:c9:4f:23:f6:72:6c:80:e5:03:f9:d1:53:3a:f0:5b:b0:
         c2:44:fe:62:a5:f4:5c:42:e5:d7:48:3f:a8:86:dc:28:36:6d:
         03:6d:e6:f1:75:f3:0a:84:1c:1e:9a:bd:5b:64:5a:d8:c6:e4:
         66:10:81:36:c4:f4:30:12:82:c3:7b:cc:42:26:18:10:ed:4f:
         02:3f:53:c2:d6:0f:9b:ac:07:65:99:c3:da:b0:d8:29:63:af:
         76:11:b8:f4:0d:f3:1d:f7:25:44:27:da:ef:81:41:1a:c7:15:
         16:d3:6f:31:2d:3e:19:54:eb:81:e9:0b:6f:94:e6:98:2b:4c:
         f7:4a:18:63:e9:28:6d:ee:f2:8c:5b:72:2a:1d:b6:9c:45:a8:
         55:37:dc:61:1c:e6:41:59:e7:7c:ea:49:f3:5b:4b:16:bc:60:
         d6:5b:7c:6f:2a:d1:22:72:a8:b3:54:50:ec:a4:17:fb:34:e5:
         8f:69:cb:44
-----BEGIN CERTIFICATE-----
MIIDhjCCAm6gAwIBAgIBATANBgkqhkiG9w0BAQsFADA6MREwDwYDVQQKDAhUZXN0
IE9yZzElMCMGA1UEAwwcVGVzdCBPcmcgcmF1YyBDQSBEZXZlbG9wbWVudDAgFw03
MDAxMDEwMDAwMDBaGA85OTk5MTIzMTIzNTk1OVowOjERMA8GA1UECgwIVGVzdCBP
cmcxJTAjBgNVBAMMHFRlc3QgT3JnIHJhdWMgQ0EgRGV2ZWxvcG1lbnQwggEiMA0G
CSqGSIb3DQEBAQUAA4IBDwAwggEKAoIBAQDOGMCHVlNpkIOch4V6JkZCTO/sI+T1
tSlCdOnwMlGM82jWXlL7t0h9TbG7oWarLsXe+TtIFYiprjreWZNnvubZvcvdazZv
zwPa10+JO//AVFfEbJrxdfWmGJHdSI/CRZOptu1d2n6UcMVbZcFgpee1WeDtf7na
okaV/XgLQk6ZzaQk67ReICimKZ27SYb3fXdaXAcQRSbZU22IwHZzqVIHF6Te1qaK
NCNS7MOGJaMeAO6mJOIH1eVYL2kVVSRhiIpJKsHliQV8TP71ZATe3uYYc3HN78vQ
yqOcq5XIsbqvxHHHYR2TR7djdHbiu4Eb658q2ePvM3Yq8rV8rMvoWp0DAgMBAAGj
gZQwgZEwHQYDVR0OBBYEFKTVQT7n6XY+Va2jP24GGwUs1VUgMGIGA1UdIwRbMFmA
FKTVQT7n6XY+Va2jP24GGwUs1VUgoT6kPDA6MREwDwYDVQQKDAhUZXN0IE9yZzEl
MCMGA1UEAwwcVGVzdCBPcmcgcmF1YyBDQSBEZXZlbG9wbWVudIIBATAMBgNVHRME
BTADAQH/MA0GCSqGSIb3DQEBCwUAA4IBAQBL/0KYPzKmuvXfc/AdAdUaxfwvTHGX
eQ9JaBNnoeqs4XTznJEEDAx3B8Dhi5aD9TusCLdmxZFu6odPA8LGt6k7mh0w5eip
UXuz+slPI/ZybIDlA/nRUzrwW7DCRP5ipfRcQuXXSD+ohtwoNm0DbebxdfMKhBwe
mr1bZFrYxuRmEIE2xPQwEoLDe8xCJhgQ7U8CP1PC1g+brAdlmcPasNgpY692Ebj0
DfMd9yVEJ9rvgUEaxxUW028xLT4ZVOuB6QtvlOaYK0z3Shhj6Sht7vKMW3IqHbac
RahVN9xhHOZBWed86knzW0sWvGDWW3xvKtEicqizVFDspBf7NOWPactE
-----END CERTIFICATE-----
